target datalayout = "e-m:e-p270:32:32-p271:32:32-p272:64:64-i64:64-i128:128-f80:128-n8:16:32:64-S128"
target triple = "x86_64-pc-linux-gnu"

%class.QObject = type { ptr, %class.QScopedPointer }
%class.QScopedPointer = type { ptr }
%class.QString = type { %struct.QArrayDataPointer }
%struct.QArrayDataPointer = type { ptr, ptr, i64 }
%class.QAbstractItemView = type { %class.QAbstractScrollArea }
%class.QAbstractScrollArea = type { %class.QFrame }
%class.QFrame = type { %class.QWidget }
%class.QWidget = type { %class.QObject, %class.QPaintDevice.base, ptr }
%class.QPaintDevice.base = type <{ ptr, i16 }>
%class.TrafficTree = type { %class.QTreeView, i8, i32, i8, %class.QString, ptr }
%class.QTreeView = type { %class.QAbstractItemView }

; Function Attrs: mustprogress uwtable
define void @_ZN11TrafficTree18applyRecentColumnsEv(ptr noundef nonnull align 8 dereferenceable(88) %0) #0 align 2 {
  %2 = alloca ptr, align 8
  store ptr %0, ptr %2, align 8
  %3 = load ptr, ptr %2, align 8
  %4 = getelementptr inbounds %class.TrafficTree, ptr %3, i32 0, i32 5
  %5 = load ptr, ptr %4, align 8
  %6 = icmp ne ptr %5, null
  br i1 %6, label %7, label %10

7:                                                ; preds = %1
  %8 = getelementptr inbounds %class.TrafficTree, ptr %3, i32 0, i32 5
  %9 = load ptr, ptr %8, align 8
  call void @_ZN21TrafficTreeHeaderView11applyRecentEv(ptr noundef nonnull align 8 dereferenceable(80) %9)
  br label %10

10:                                               ; preds = %7, %1
  ret void
}