; Function Attrs: mustprogress uwtable
define void @_ZN11TrafficTree18applyRecentColumnsEv(ptr nocapture noundef nonnull readonly align 8 dereferenceable(88) %0) local_unnamed_addr #0 align 2 {
  %2 = getelementptr inbounds i8, ptr %0, i64 80
  %3 = load ptr, ptr %2, align 8
  %.not = icmp eq ptr %3, null
  br i1 %.not, label %5, label %4

4:                                                ; preds = %1
  tail call void @_ZN21TrafficTreeHeaderView11applyRecentEv(ptr noundef nonnull align 8 dereferenceable(80) %3)
  br label %5

5:                                                ; preds = %4, %1
  ret void
}